; Function Attrs: mustprogress nounwind uwtable
define hidden noundef i64 @_ZN16XObjectAllocator18alloc_large_objectEm16XAllocationFlags(ptr nocapture noundef nonnull readonly align 8 dereferenceable(56) %0, i64 noundef %1, i8 %2) local_unnamed_addr #1 align 2 {
  %4 = add i64 %1, -1
  %5 = add i64 %1, 2097151
  %6 = and i64 %5, -2097152
  %7 = load ptr, ptr @_ZN5XHeap5_heapE, align 8
  %8 = tail call noundef ptr @_ZN5XHeap10alloc_pageEhm16XAllocationFlags(ptr noundef nonnull align 64 dereferenceable(4088) %7, i8 noundef zeroext 2, i64 noundef %6, i8 %2) #7
  %.not.i = icmp eq ptr %8, null
  br i1 %.not.i, label %_ZN5XPage12alloc_objectEm.exit, label %9

9:                                                ; preds = %3
  %10 = getelementptr inbounds i8, ptr %0, i64 8
  %11 = load ptr, ptr @_ZN4XCPU9_affinityE, align 8
  %12 = tail call align 4 ptr @llvm.threadlocal.address.p0(ptr align 4 @_ZN4XCPU4_cpuE)
  %13 = load i32, ptr %12, align 4
  %14 = zext i32 %13 to i64
  %15 = getelementptr inbounds %class.PaddedEnd, ptr %11, i64 %14
  %16 = load ptr, ptr %15, align 8
  %17 = tail call align 8 ptr @llvm.threadlocal.address.p0(ptr align 8 @_ZN4XCPU5_selfE)
  %18 = load ptr, ptr %17, align 8
  %19 = icmp eq ptr %16, %18
  br i1 %19, label %22, label %20

20:                                               ; preds = %9
  %21 = tail call noundef i32 @_ZN4XCPU7id_slowEv() #7
  %.pre.i = zext i32 %21 to i64
  br label %22

22:                                               ; preds = %20, %9
  %.pre-phi.i = phi i64 [ %14, %9 ], [ %.pre.i, %20 ]
  %23 = load i64, ptr %10, align 8
  %24 = shl nuw nsw i64 %.pre-phi.i, 12
  %25 = add i64 %24, %23
  %26 = inttoptr i64 %25 to ptr
  %27 = tail call noundef i64 asm sideeffect "lock xaddq $0,($2)", "=r,0,r,~{cc},~{memory},~{dirflag},~{fpsr},~{flags}"(i64 %6, ptr %26) #7, !srcloc !9
  %28 = load i8, ptr %8, align 8
  switch i8 %28, label %_ZNK5XPage16object_alignmentEv.exit.i [
    i8 0, label %29
    i8 1, label %_ZNK5XPage16object_alignmentEv.exit.sink.split.i
  ]

29:                                               ; preds = %22
  %30 = load ptr, ptr @XObjectAlignmentSmall, align 8
  br label %_ZNK5XPage16object_alignmentEv.exit.sink.split.i

_ZNK5XPage16object_alignmentEv.exit.sink.split.i: ; preds = %29, %22
  %.sink8.i = phi ptr [ %30, %29 ], [ @XObjectAlignmentMedium, %22 ]
  %31 = load i32, ptr %.sink8.i, align 4
  %32 = sext i32 %31 to i64
  br label %_ZNK5XPage16object_alignmentEv.exit.i

_ZNK5XPage16object_alignmentEv.exit.i:            ; preds = %_ZNK5XPage16object_alignmentEv.exit.sink.split.i, %22
  %.0.i.i = phi i64 [ 2097152, %22 ], [ %32, %_ZNK5XPage16object_alignmentEv.exit.sink.split.i ]
  %33 = add i64 %4, %.0.i.i
  %34 = sub nsw i64 0, %.0.i.i
  %35 = and i64 %33, %34
  %36 = getelementptr inbounds i8, ptr %8, i64 24
  %37 = load volatile i64, ptr %36, align 8
  %38 = add i64 %35, %37
  %39 = getelementptr inbounds i8, ptr %8, i64 16
  %40 = load i64, ptr %39, align 8
  %41 = icmp ugt i64 %38, %40
  br i1 %41, label %_ZN5XPage12alloc_objectEm.exit, label %42

42:                                               ; preds = %_ZNK5XPage16object_alignmentEv.exit.i
  store volatile i64 %38, ptr %36, align 8
  %43 = load i64, ptr @XAddressOffsetMask, align 8
  %44 = and i64 %43, %37
  %45 = load i64, ptr @XAddressGoodMask, align 8
  %46 = or i64 %44, %45
  br label %_ZN5XPage12alloc_objectEm.exit

_ZN5XPage12alloc_objectEm.exit:                   ; preds = %3, %42, %_ZNK5XPage16object_alignmentEv.exit.i
  %.0 = phi i64 [ %46, %42 ], [ 0, %_ZNK5XPage16object_alignmentEv.exit.i ], [ 0, %3 ]
  ret i64 %.0
}